; Function Attrs: mustprogress uwtable
define noundef zeroext i1 @_ZNK7rocksdb12Customizable13AreEquivalentERKNS_13ConfigOptionsEPKNS_12ConfigurableEPNSt7__cxx1112basic_stringIcSt11char_traitsIcESaIcEEE(ptr noundef nonnull align 8 dereferenceable(32) %this, ptr noundef nonnull align 8 dereferenceable(80) %config_options, ptr noundef %other, ptr noundef %mismatch) unnamed_addr #0 align 2 personality ptr @__gxx_personality_v0 {
entry:
  %ref.tmp = alloca %"class.std::__cxx11::basic_string", align 8
  %ref.tmp5 = alloca %"class.std::__cxx11::basic_string", align 8
  %sanity_level = getelementptr inbounds i8, ptr %config_options, i64 44
  %0 = load i8, ptr %sanity_level, align 4
  %cmp = icmp ugt i8 %0, 1
  %cmp2 = icmp ne ptr %this, %other
  %or.cond = and i1 %cmp2, %cmp
  br i1 %or.cond, label %if.then, label %return

if.then:                                          ; preds = %entry
  %cmp3 = icmp eq ptr %other, null
  br i1 %cmp3, label %return, label %if.else

if.else:                                          ; preds = %if.then
  %vtable = load ptr, ptr %this, align 8
  %vfn = getelementptr inbounds i8, ptr %vtable, i64 120
  %1 = load ptr, ptr %vfn, align 8
  call void %1(ptr nonnull sret(%"class.std::__cxx11::basic_string") align 8 %ref.tmp, ptr noundef nonnull align 8 dereferenceable(32) %this)
  %vtable6 = load ptr, ptr %other, align 8
  %vfn7 = getelementptr inbounds i8, ptr %vtable6, i64 120
  %2 = load ptr, ptr %vfn7, align 8
  invoke void %2(ptr nonnull sret(%"class.std::__cxx11::basic_string") align 8 %ref.tmp5, ptr noundef nonnull align 8 dereferenceable(32) %other)
          to label %invoke.cont unwind label %lpad

invoke.cont:                                      ; preds = %if.else
  %call.i.i = call noundef i64 @_ZNKSt7__cxx1112basic_stringIcSt11char_traitsIcESaIcEE4sizeEv(ptr noundef nonnull align 8 dereferenceable(32) %ref.tmp) #14
  %call1.i.i = call noundef i64 @_ZNKSt7__cxx1112basic_stringIcSt11char_traitsIcESaIcEE4sizeEv(ptr noundef nonnull align 8 dereferenceable(32) %ref.tmp5) #14
  %cmp.i.i = icmp eq i64 %call.i.i, %call1.i.i
  br i1 %cmp.i.i, label %land.rhs.i.i, label %if.then8.critedge

land.rhs.i.i:                                     ; preds = %invoke.cont
  %call2.i.i = call noundef ptr @_ZNKSt7__cxx1112basic_stringIcSt11char_traitsIcESaIcEE4dataEv(ptr noundef nonnull align 8 dereferenceable(32) %ref.tmp) #14
  %call3.i.i = call noundef ptr @_ZNKSt7__cxx1112basic_stringIcSt11char_traitsIcESaIcEE4dataEv(ptr noundef nonnull align 8 dereferenceable(32) %ref.tmp5) #14
  %call4.i.i = call noundef i64 @_ZNKSt7__cxx1112basic_stringIcSt11char_traitsIcESaIcEE4sizeEv(ptr noundef nonnull align 8 dereferenceable(32) %ref.tmp) #14
  %cmp.i.i.i = icmp eq i64 %call4.i.i, 0
  br i1 %cmp.i.i.i, label %if.else11.critedge, label %if.end.i.i.i

if.end.i.i.i:                                     ; preds = %land.rhs.i.i
  %bcmp.i.i = call i32 @bcmp(ptr %call2.i.i, ptr %call3.i.i, i64 %call4.i.i)
  %.not = icmp eq i32 %bcmp.i.i, 0
  call void @_ZNSt7__cxx1112basic_stringIcSt11char_traitsIcESaIcEED1Ev(ptr noundef nonnull align 8 dereferenceable(32) %ref.tmp5) #14
  call void @_ZNSt7__cxx1112basic_stringIcSt11char_traitsIcESaIcEED1Ev(ptr noundef nonnull align 8 dereferenceable(32) %ref.tmp) #14
  br i1 %.not, label %if.else11, label %if.then8

if.then8.critedge:                                ; preds = %invoke.cont
  call void @_ZNSt7__cxx1112basic_stringIcSt11char_traitsIcESaIcEED1Ev(ptr noundef nonnull align 8 dereferenceable(32) %ref.tmp5) #14
  call void @_ZNSt7__cxx1112basic_stringIcSt11char_traitsIcESaIcEED1Ev(ptr noundef nonnull align 8 dereferenceable(32) %ref.tmp) #14
  br label %if.then8

if.then8:                                         ; preds = %if.then8.critedge, %if.end.i.i.i
  %call10 = call noundef nonnull align 8 dereferenceable(32) ptr @_ZNSt7__cxx1112basic_stringIcSt11char_traitsIcESaIcEEaSEPKc(ptr noundef nonnull align 8 dereferenceable(32) %mismatch, ptr noundef nonnull @.str.6)
  br label %return

lpad:                                             ; preds = %if.else
  %3 = landingpad { ptr, i32 }
          cleanup
  call void @_ZNSt7__cxx1112basic_stringIcSt11char_traitsIcESaIcEED1Ev(ptr noundef nonnull align 8 dereferenceable(32) %ref.tmp) #14
  resume { ptr, i32 } %3

if.else11.critedge:                               ; preds = %land.rhs.i.i
  call void @_ZNSt7__cxx1112basic_stringIcSt11char_traitsIcESaIcEED1Ev(ptr noundef nonnull align 8 dereferenceable(32) %ref.tmp5) #14
  call void @_ZNSt7__cxx1112basic_stringIcSt11char_traitsIcESaIcEED1Ev(ptr noundef nonnull align 8 dereferenceable(32) %ref.tmp) #14
  br label %if.else11

if.else11:                                        ; preds = %if.else11.critedge, %if.end.i.i.i
  %4 = load i8, ptr %sanity_level, align 4
  %cmp14 = icmp ugt i8 %4, 2
  br i1 %cmp14, label %if.then15, label %return

if.then15:                                        ; preds = %if.else11
  %call16 = call noundef zeroext i1 @_ZNK7rocksdb12Configurable13AreEquivalentERKNS_13ConfigOptionsEPKS0_PNSt7__cxx1112basic_stringIcSt11char_traitsIcESaIcEEE(ptr noundef nonnull align 8 dereferenceable(32) %this, ptr noundef nonnull align 8 dereferenceable(80) %config_options, ptr noundef nonnull %other, ptr noundef %mismatch)
  br label %return

return:                                           ; preds = %entry, %if.else11, %if.then, %if.then15, %if.then8
  %retval.0 = phi i1 [ false, %if.then8 ], [ %call16, %if.then15 ], [ false, %if.then ], [ true, %if.else11 ], [ true, %entry ]
  ret i1 %retval.0
}